; Function Attrs: mustprogress nounwind uwtable
define internal void @_ZNSt15_Sp_counted_ptrIPN7testing8internal26ParameterizedTestSuiteInfoIN4absl13cord_internal12_GLOBAL__N_120CordRepBtreeDualTestEE8TestInfoELN9__gnu_cxx12_Lock_policyE2EE10_M_disposeEv(ptr nocapture noundef nonnull readonly align 8 dereferenceable(24) %this) unnamed_addr #4 align 2 personality ptr @__gxx_personality_v0 {
entry:
  %_M_ptr = getelementptr inbounds i8, ptr %this, i64 16
  %0 = load ptr, ptr %_M_ptr, align 8
  %isnull = icmp eq ptr %0, null
  br i1 %isnull, label %delete.end, label %delete.notnull

delete.notnull:                                   ; preds = %entry
  %code_location.i = getelementptr inbounds i8, ptr %0, i64 72
  tail call void @_ZNSt7__cxx1112basic_stringIcSt11char_traitsIcESaIcEED1Ev(ptr noundef nonnull align 8 dereferenceable(32) %code_location.i) #28
  %test_meta_factory.i = getelementptr inbounds i8, ptr %0, i64 64
  %1 = load ptr, ptr %test_meta_factory.i, align 8
  %cmp.not.i.i = icmp eq ptr %1, null
  br i1 %cmp.not.i.i, label %_ZN7testing8internal26ParameterizedTestSuiteInfoIN4absl13cord_internal12_GLOBAL__N_120CordRepBtreeDualTestEE8TestInfoD2Ev.exit, label %_ZNKSt14default_deleteIN7testing8internal19TestMetaFactoryBaseISt5tupleIJbbEEEEEclEPS5_.exit.i.i

_ZNKSt14default_deleteIN7testing8internal19TestMetaFactoryBaseISt5tupleIJbbEEEEEclEPS5_.exit.i.i: ; preds = %delete.notnull
  %vtable.i.i.i = load ptr, ptr %1, align 8
  %vfn.i.i.i = getelementptr inbounds i8, ptr %vtable.i.i.i, i64 8
  %2 = load ptr, ptr %vfn.i.i.i, align 8
  tail call void %2(ptr noundef nonnull align 8 dereferenceable(8) %1) #28
  br label %_ZN7testing8internal26ParameterizedTestSuiteInfoIN4absl13cord_internal12_GLOBAL__N_120CordRepBtreeDualTestEE8TestInfoD2Ev.exit

_ZN7testing8internal26ParameterizedTestSuiteInfoIN4absl13cord_internal12_GLOBAL__N_120CordRepBtreeDualTestEE8TestInfoD2Ev.exit: ; preds = %delete.notnull, %_ZNKSt14default_deleteIN7testing8internal19TestMetaFactoryBaseISt5tupleIJbbEEEEEclEPS5_.exit.i.i
  store ptr null, ptr %test_meta_factory.i, align 8
  %test_base_name.i = getelementptr inbounds i8, ptr %0, i64 32
  tail call void @_ZNSt7__cxx1112basic_stringIcSt11char_traitsIcESaIcEED1Ev(ptr noundef nonnull align 8 dereferenceable(32) %test_base_name.i) #28
  tail call void @_ZNSt7__cxx1112basic_stringIcSt11char_traitsIcESaIcEED1Ev(ptr noundef nonnull align 8 dereferenceable(32) %0) #28
  tail call void @_ZdlPv(ptr noundef nonnull %0) #31
  br label %delete.end

delete.end:                                       ; preds = %_ZN7testing8internal26ParameterizedTestSuiteInfoIN4absl13cord_internal12_GLOBAL__N_120CordRepBtreeDualTestEE8TestInfoD2Ev.exit, %entry
  ret void
}